target datalayout = "e-m:e-p270:32:32-p271:32:32-p272:64:64-i64:64-i128:128-f80:128-n8:16:32:64-S128"
target triple = "x86_64-pc-linux-gnu"

%struct.packet_range_tag = type { i32, i8, i8, i8, ptr, i32, ptr, i32, ptr, i32, i32, i32, i32, i32, i32, i32, i32, i32, i32, i32, i32, i32, i32, i32, i32, i32, i32, i32, i32, i32, i32, i32, i32, i32, i32, i32, ptr, ptr, ptr, ptr, ptr, ptr, ptr, ptr, i8, i32 }

; Function Attrs: nounwind null_pointer_is_valid sspstrong uwtable
define hidden i32 @packet_range_check(ptr noundef %0) #4 {
  %2 = alloca i32, align 4
  %3 = alloca ptr, align 8
  store ptr %0, ptr %3, align 8
  %4 = load ptr, ptr %3, align 8
  %5 = getelementptr inbounds nuw %struct.packet_range_tag, ptr %4, i32 0, i32 0
  %6 = load i32, ptr %5, align 8
  %7 = icmp eq i32 %6, 4
  br i1 %7, label %8, label %17

8:                                                ; preds = %1
  %9 = load ptr, ptr %3, align 8
  %10 = getelementptr inbounds nuw %struct.packet_range_tag, ptr %9, i32 0, i32 4
  %11 = load ptr, ptr %10, align 8
  %12 = icmp eq ptr %11, null
  br i1 %12, label %13, label %17

13:                                               ; preds = %8
  %14 = load ptr, ptr %3, align 8
  %15 = getelementptr inbounds nuw %struct.packet_range_tag, ptr %14, i32 0, i32 5
  %16 = load i32, ptr %15, align 8
  store i32 %16, ptr %2, align 4
  br label %32

17:                                               ; preds = %8, %1
  %18 = load ptr, ptr %3, align 8
  %19 = getelementptr inbounds nuw %struct.packet_range_tag, ptr %18, i32 0, i32 0
  %20 = load i32, ptr %19, align 8
  %21 = icmp eq i32 %20, 1
  br i1 %21, label %22, label %31

22:                                               ; preds = %17
  %23 = load ptr, ptr %3, align 8
  %24 = getelementptr inbounds nuw %struct.packet_range_tag, ptr %23, i32 0, i32 6
  %25 = load ptr, ptr %24, align 8
  %26 = icmp eq ptr %25, null
  br i1 %26, label %27, label %31

27:                                               ; preds = %22
  %28 = load ptr, ptr %3, align 8
  %29 = getelementptr inbounds nuw %struct.packet_range_tag, ptr %28, i32 0, i32 7
  %30 = load i32, ptr %29, align 8
  store i32 %30, ptr %2, align 4
  br label %32

31:                                               ; preds = %22, %17
  store i32 0, ptr %2, align 4
  br label %32

32:                                               ; preds = %31, %27, %13
  %33 = load i32, ptr %2, align 4
  ret i32 %33
}