; Function Attrs: mustprogress nofree norecurse nosync nounwind null_pointer_is_valid sspstrong willreturn memory(argmem: read) uwtable
define hidden i32 @packet_range_check(ptr noundef readonly captures(none) %0) local_unnamed_addr #3 {
  %2 = load i32, ptr %0, align 8
  switch i32 %2, label %.thread [
    i32 4, label %3
    i32 1, label %7
  ]

3:                                                ; preds = %1
  %4 = getelementptr inbounds nuw i8, ptr %0, i64 8
  %5 = load ptr, ptr %4, align 8
  %6 = icmp eq ptr %5, null
  br i1 %6, label %.thread.sink.split, label %.thread

7:                                                ; preds = %1
  %8 = getelementptr inbounds nuw i8, ptr %0, i64 24
  %9 = load ptr, ptr %8, align 8
  %10 = icmp eq ptr %9, null
  br i1 %10, label %.thread.sink.split, label %.thread

.thread.sink.split:                               ; preds = %7, %3
  %.sink6 = phi i64 [ 16, %3 ], [ 32, %7 ]
  %11 = getelementptr inbounds nuw i8, ptr %0, i64 %.sink6
  %12 = load i32, ptr %11, align 8
  br label %.thread

.thread:                                          ; preds = %.thread.sink.split, %1, %3, %7
  %.0 = phi i32 [ 0, %7 ], [ 0, %3 ], [ 0, %1 ], [ %12, %.thread.sink.split ]
  ret i32 %.0
}